; ModuleID = 'source-C-CXX/22/748.c'
source_filename = "source-C-CXX/22/748.c"
target datalayout = "e-m:e-p270:32:32-p271:32:32-p272:64:64-i64:64-f80:128-n8:16:32:64-S128"
target triple = "x86_64-pc-linux-gnu"

%struct._IO_FILE = type { i32, i8*, i8*, i8*, i8*, i8*, i8*, i8*, i8*, i8*, i8*, i8*, %struct._IO_marker*, %struct._IO_FILE*, i32, i32, i64, i16, i8, [1 x i8], i8*, i64, %struct._IO_codecvt*, %struct._IO_wide_data*, %struct._IO_FILE*, i8*, i64, i32, [20 x i8] }
%struct._IO_marker = type opaque
%struct._IO_codecvt = type opaque
%struct._IO_wide_data = type opaque

@.str = private unnamed_addr constant [3 x i8] c"%s\00", align 1
@.str.1 = private unnamed_addr constant [4 x i8] c"%s \00", align 1
@stdin = external local_unnamed_addr global %struct._IO_FILE*, align 8

; Function Attrs: nofree nounwind sspstrong uwtable
define dso_local i32 @main() local_unnamed_addr #0 {
  %1 = alloca [100 x [100 x i8]], align 16
  %2 = getelementptr inbounds [100 x [100 x i8]], [100 x [100 x i8]]* %1, i64 0, i64 0, i64 0
  call void @llvm.lifetime.start.p0i8(i64 10000, i8* nonnull %2) #4
  br label %8

3:                                                ; preds = %8
  %4 = trunc i64 %9 to i32
  %5 = icmp eq i32 %4, 0
  br i1 %5, label %25, label %6

6:                                                ; preds = %3
  %7 = and i64 %9, 4294967295
  br label %18

8:                                                ; preds = %0, %8
  %9 = phi i64 [ 0, %0 ], [ %14, %8 ]
  %10 = phi i8* [ %2, %0 ], [ %15, %8 ]
  %11 = call i32 (i8*, ...) @__isoc99_scanf(i8* getelementptr inbounds ([3 x i8], [3 x i8]* @.str, i64 0, i64 0), i8* nonnull %10)
  %12 = load %struct._IO_FILE*, %struct._IO_FILE** @stdin, align 8, !tbaa !5
  %13 = call i32 @getc(%struct._IO_FILE* %12) #4
  %14 = add nuw i64 %9, 1
  %15 = getelementptr inbounds [100 x [100 x i8]], [100 x [100 x i8]]* %1, i64 0, i64 %14, i64 0
  %16 = and i32 %13, 255
  %17 = icmp eq i32 %16, 32
  br i1 %17, label %8, label %3, !llvm.loop !9

18:                                               ; preds = %6, %18
  %19 = phi i64 [ %7, %6 ], [ %24, %18 ]
  %20 = getelementptr inbounds [100 x [100 x i8]], [100 x [100 x i8]]* %1, i64 0, i64 %19, i64 0
  %21 = call i32 (i8*, ...) @printf(i8* nonnull dereferenceable(1) getelementptr inbounds ([4 x i8], [4 x i8]* @.str.1, i64 0, i64 0), i8* nonnull %20)
  %22 = trunc i64 %19 to i32
  %23 = icmp sgt i32 %22, 1
  %24 = add nsw i64 %19, -1
  br i1 %23, label %18, label %25, !llvm.loop !11

25:                                               ; preds = %18, %3
  %26 = call i32 @puts(i8* nonnull %2)
  call void @llvm.lifetime.end.p0i8(i64 10000, i8* nonnull %2) #4
  ret i32 0
}

; Function Attrs: argmemonly mustprogress nofree nosync nounwind willreturn
declare void @llvm.lifetime.start.p0i8(i64 immarg, i8* nocapture) #1

; Function Attrs: nofree nounwind
declare noundef i32 @__isoc99_scanf(i8* nocapture noundef readonly, ...) local_unnamed_addr #2

; Function Attrs: nofree nounwind
declare noundef i32 @printf(i8* nocapture noundef readonly, ...) local_unnamed_addr #2

; Function Attrs: argmemonly mustprogress nofree nosync nounwind willreturn
declare void @llvm.lifetime.end.p0i8(i64 immarg, i8* nocapture) #1

; Function Attrs: nofree nounwind
declare noundef i32 @getc(%struct._IO_FILE* nocapture noundef) local_unnamed_addr #2

; Function Attrs: nofree nounwind
declare noundef i32 @puts(i8* nocapture noundef readonly) local_unnamed_addr #3


!llvm.module.flags = !{!0, !1, !2, !3}
!llvm.ident = !{!4}

!0 = !{i32 1, !"wchar_size", i32 4}
!1 = !{i32 7, !"PIC Level", i32 2}
!2 = !{i32 7, !"PIE Level", i32 2}
!3 = !{i32 7, !"uwtable", i32 1}
!4 = !{!"clang version 13.0.0"}
!5 = !{!6, !6, i64 0}
!6 = !{!"any pointer", !7, i64 0}
!7 = !{!"omnipotent char", !8, i64 0}
!8 = !{!"Simple C/C++ TBAA"}
!9 = distinct !{!9, !10}
!10 = !{!"llvm.loop.mustprogress"}
!11 = distinct !{!11, !10}
